; ModuleID = 'bench/yoga/original/YGPixelGrid.ll'
source_filename = "bench/yoga/original/YGPixelGrid.ll"
target datalayout = "e-m:e-p270:32:32-p271:32:32-p272:64:64-i64:64-i128:128-f80:128-n8:16:32:64-S128"
target triple = "x86_64-pc-linux-gnu"

; Function Attrs: mustprogress uwtable
define noundef float @YGRoundValueToPixelGrid(double noundef %0, double noundef %1, i1 noundef zeroext %2, i1 noundef zeroext %3) local_unnamed_addr #0 {
  %5 = tail call noundef float @_ZN8facebook4yoga21roundValueToPixelGridEddbb(double noundef %0, double noundef %1, i1 noundef zeroext %2, i1 noundef zeroext %3)
  ret float %5
}

declare noundef float @_ZN8facebook4yoga21roundValueToPixelGridEddbb(double noundef, double noundef, i1 noundef zeroext, i1 noundef zeroext) local_unnamed_addr #1


!llvm.linker.options = !{}
!llvm.module.flags = !{!0, !1, !2, !3}

!0 = !{i32 1, !"wchar_size", i32 4}
!1 = !{i32 8, !"PIC Level", i32 2}
!2 = !{i32 7, !"uwtable", i32 2}
!3 = !{i32 7, !"frame-pointer", i32 2}
